; Function Attrs: nounwind uwtable
define internal void @recff_rawget(ptr noundef %0, ptr noundef readonly captures(none) %1) #0 {
  %3 = alloca %struct.RecordIndex, align 8
  call void @llvm.lifetime.start.p0(i64 72, ptr nonnull %3) #9
  %4 = getelementptr inbounds nuw i8, ptr %0, i64 160
  %5 = load ptr, ptr %4, align 8, !tbaa !37
  %6 = load i32, ptr %5, align 4, !tbaa !39
  %7 = getelementptr inbounds nuw i8, ptr %3, i64 48
  store i32 %6, ptr %7, align 8, !tbaa !47
  %8 = getelementptr inbounds nuw i8, ptr %5, i64 4
  %9 = load i32, ptr %8, align 4, !tbaa !39
  %10 = getelementptr inbounds nuw i8, ptr %3, i64 52
  store i32 %9, ptr %10, align 4, !tbaa !50
  %11 = and i32 %6, 520093696
  %12 = icmp eq i32 %11, 184549376
  %13 = icmp ne i32 %9, 0
  %or.cond = select i1 %12, i1 %13, i1 false
  br i1 %or.cond, label %14, label %26

14:                                               ; preds = %2
  %15 = getelementptr inbounds nuw i8, ptr %3, i64 56
  store i32 0, ptr %15, align 8, !tbaa !53
  %16 = getelementptr inbounds nuw i8, ptr %3, i64 68
  store i32 0, ptr %16, align 4, !tbaa !51
  %17 = load ptr, ptr %1, align 8, !tbaa !36
  %18 = load i64, ptr %17, align 8, !tbaa !4
  %19 = and i64 %18, 140737488355327
  %20 = or disjoint i64 %19, -1688849860263936
  store i64 %20, ptr %3, align 8, !tbaa !4
  %21 = getelementptr inbounds nuw i8, ptr %3, i64 8
  %22 = getelementptr inbounds nuw i8, ptr %17, i64 8
  %23 = load i64, ptr %22, align 8, !tbaa !4
  store i64 %23, ptr %21, align 8, !tbaa !4
  %24 = call i32 @lj_record_idx(ptr noundef nonnull %0, ptr noundef nonnull %3) #9
  %25 = load ptr, ptr %4, align 8, !tbaa !37
  store i32 %24, ptr %25, align 4, !tbaa !39
  br label %26

26:                                               ; preds = %14, %2
  call void @llvm.lifetime.end.p0(i64 72, ptr nonnull %3) #9
  ret void
}